(dp1
S'output'
p2
S''
sS'layer'
p3
S'/opt/web2py/applications/cmdb/views/dbs/index.html'
p4
sS'code'
p5
S'response.write(\'\\n<!DOCTYPE html PUBLIC "-//W3C//DTD XHTML 1.0 Transitional//EN" "http://www.w3.org/TR/xhtml1/DTD/xhtml1-transitional.dtd">\\n<html xmlns="http://www.w3.org/1999/xhtml" xml:lang="\',escape=False)\nresponse.write(T.accepted_language or \'en\')\nresponse.write(\'">\\n  <head>\\n    <title>\',escape=False)\nresponse.write(response.title or request.application)\nresponse.write(\'</title>\\n    <meta http-equiv="Content-Type" content="text/html; charset=UTF-8" />     \\n    \',escape=False)\nresponse.files.append(URL(request.application,\'static\',\'base.css\'))\nresponse.write(\'\\n    \',escape=False)\nresponse.files.insert(0,URL(r=request,c=\'static\',f=\'jquery.js\'))\nresponse.files.insert(1,URL(r=request,c=\'static\',f=\'calendar.css\'))\nresponse.files.insert(2,URL(r=request,c=\'static\',f=\'calendar.js\'))\nfor _item in response.meta or []:\n    response.write(\'\\n     <meta name="\',escape=False)\n    response.write(_item)\n    response.write(\'" content="\',escape=False)\n    response.write(response.meta[_item])\n    response.write(\'" />\',escape=False)\n    pass\nfor _k,_file in enumerate(response.files or []):\n    if _file in response.files[:_k]:\n        continue\n    elif _file[-4:].lower()==\'.css\':\n        response.write(\'\\n     <link href="\',escape=False)\n        response.write(_file)\n        response.write(\'" rel="stylesheet" type="text/css" charset="utf-8" />\',escape=False)\n    elif _file[-3:].lower()==\'.js\':\n        response.write(\'\\n     <script src="\',escape=False)\n        response.write(_file)\n        response.write(\'" type="text/javascript"></script>\',escape=False)\n        pass\n    pass\nresponse.write(\'\\n<script type="text/javascript"><!--\\nfunction popup(url) {\\n  newwindow=window.open(url,\\\'name\\\',\\\'height=400,width=600\\\');\\n  if (window.focus) newwindow.focus();\\n  return false;\\n}\\nfunction collapse(id) { jQuery(\\\'#\\\'+id).slideToggle(); }\\nfunction fade(id,value) { if(value>0) jQuery(\\\'#\\\'+id).hide().fadeIn(\\\'slow\\\'); else jQuery(\\\'#\\\'+id).show().fadeOut(\\\'slow\\\'); }\\nfunction ajax(u,s,t) {\\n  var query="";\\n  for(i=0; i<s.length; i++) { \\n     if(i>0) query=query+"&";\\n     query=query+encodeURIComponent(s[i])+"="+encodeURIComponent(document.getElementById(s[i]).value);\\n  }\\n  jQuery.ajax({type: "POST", url: u, data: query, success: function(msg) { if(t==\\\':eval\\\') eval(msg); else document.getElementById(t).innerHTML=msg; } });  \\n}\\nString.prototype.reverse = function () { return this.split(\\\'\\\').reverse().join(\\\'\\\');};\\nfunction web2py_ajax_init() {\\n  jQuery(\\\'.hidden\\\').hide();\\n  jQuery(\\\'.error\\\').hide().slideDown(\\\'slow\\\');\\n  jQuery(\\\'.flash\\\').click(function() { jQuery(this).fadeOut(\\\'slow\\\'); return false; });\\n  jQuery(\\\'input.integer\\\').keyup(function(){this.value=this.value.reverse().replace(/[^0-9\\\\-]|\\\\-(?=.)/g,\\\'\\\').reverse();});\\n  jQuery(\\\'input.double\\\').keyup(function(){this.value=this.value.reverse().replace(/[^0-9\\\\-\\\\.]|[\\\\-](?=.)|[\\\\.](?=[0-9]*[\\\\.])/g,\\\'\\\').reverse();});\\n  jQuery("input[type=\\\'checkbox\\\'].delete").click(function() { if(this.checked) if(!confirm("\',escape=False)\nresponse.write(T(\'Sure you want to delete this object?\'))\nresponse.write(\'")) this.checked=false; }); \\n  try {jQuery("input.date").focus( function() {Calendar.setup({\\n     inputField:this.id, ifFormat:"\',escape=False)\nresponse.write(T(\'%Y-%m-%d\'))\nresponse.write(\'", showsTime:false\\n  }); }); } catch(e) {};\\n  try { jQuery("input.datetime").focus( function() {Calendar.setup({\\n     inputField:this.id, ifFormat:"\',escape=False)\nresponse.write(T(\'%Y-%m-%d %H:%M:%S\'))\nresponse.write(\'", showsTime: true,timeFormat: "24"\\n  }); }); } catch(e) {};\\n  try { jQuery("input.time").clockpick({\\n      starthour:0, endhour:23, showminutes:true, military:true\\n  }); } catch(e) {};\\n};\\njQuery(document).ready(function(){\\n   jQuery(\\\'.flash\\\').hide();\\n   if(jQuery(\\\'.flash\\\').html()!=\\\'\\\') jQuery(\\\'.flash\\\').slideDown(\\\'slow\\\');\\n   web2py_ajax_init();});\\n\\nfunction web2py_trap_form(action,target) {\\n   jQuery(\\\'#\\\'+target+\\\' form\\\').each(function(i){\\n      var form=jQuery(this);\\n      jQuery(\\\':submit,.submit\\\',this).click(function(){\\n         jQuery(\\\'.flash\\\').hide().html(\\\'\\\');\\n         web2py_ajax_page(\\\'post\\\',action,form.serialize(),target);\\n         return false;\\n      });\\n   });\\n}\\nfunction web2py_ajax_page(method,action,data,target) {\\n  jQuery.ajax({\\\'type\\\':method,\\\'url\\\':action,\\\'data\\\':data,\\n    \\\'beforeSend\\\':function(xhr){\\n      xhr.setRequestHeader(\\\'web2py-component-location\\\',document.location);\\n      xhr.setRequestHeader(\\\'web2py-component-element\\\',target);},\\n    \\\'complete\\\':function(xhr,text){\\n      command=xhr.getResponseHeader(\\\'web2py-component-command\\\');\\n      if(command) eval(command);\\n      flash=xhr.getResponseHeader(\\\'web2py-component-flash\\\');\\n      if(flash) jQuery(\\\'.flash\\\').html(flash).slideDown();\\n      },\\n    \\\'success\\\': function(text) {\\n      jQuery(\\\'#\\\'+target).html(text);\\n      web2py_trap_form(action,target);\\n      web2py_ajax_init();\\n      }\\n    });\\n}\\nfunction web2py_component(action,target) {\\n    jQuery(document).ready(function(){ web2py_ajax_page(\\\'get\\\',action,null,target); });\\n}\\n//--></script>\\n\\n<script type="text/javascript">\\n<!--\\n/* this adds sfhover class to menu li items to make IE6 work */\\njQuery(document).ready(function(){\\n    jQuery(\\\'li.web2py-menu-expand\\\').hover(\\n        function () {\\n            jQuery(this).addClass(\\\'sfhover\\\');\\n        },\\n        function () {\\n            jQuery(this).removeClass(\\\'sfhover\\\');\\n        }\\n    );\\n});\\n//-->\\n</script> \\n  </head>\\n  <body>\\n    <div class="wrapper">\\n      <table class="layout">\\n        <tr>\\n          <td colspan="3"  class="header">\\n            <h1>\\n              \',escape=False)\nresponse.write(A(response.title or request.application, _href=URL(request.application,\'default\',\'index\')))\nresponse.write(\'\\n            </h1>            \\n            <h3>\',escape=False)\nresponse.write(response.subtitle or \'\')\nresponse.write(\'</h3>\\n          </td>\\n        </tr>\\n        <tr>\\n          <td colspan="3" class="statusbar">\\n            \',escape=False)\nresponse.write(\'/\'.join([\'\',request.application,request.controller,request.function]+request.args))\nresponse.write(\'\\n\\t    \',escape=False)\nif \'auth\' in globals():\n    response.write(\'\\n\\t    [ \',escape=False)\n    if not auth.user:\n        response.write(\'\\n\\t    <a href="\',escape=False)\n        response.write(URL(r=request,f=\'user/login\'))\n        response.write(\'">\',escape=False)\n        response.write(T(\'login\'))\n        response.write(\'</a> |\\n\\t    <a href="\',escape=False)\n        response.write(URL(r=request,f=\'user/register\'))\n        response.write(\'">\',escape=False)\n        response.write(T(\'register\'))\n        response.write(\'</a> |\\n\\t    <a href="\',escape=False)\n        response.write(URL(r=request,f=\'user/request_reset_password\'))\n        response.write(\'">\',escape=False)\n        response.write(T(\'lost password\'))\n        response.write(\'</a>\\n\\t    \',escape=False)\n    else:\n        response.write(\'\\n\\t    \',escape=False)\n        response.write(auth.user.first_name)\n        response.write(\' |\\n\\t    <a href="\',escape=False)\n        response.write(URL(r=request,f=\'user/logout\'))\n        response.write(\'">\',escape=False)\n        response.write(T(\'logout\'))\n        response.write(\'</a> |\\n\\t    <a href="\',escape=False)\n        response.write(URL(r=request,f=\'user/change_password\'))\n        response.write(\'">\',escape=False)\n        response.write(T(\'change password\'))\n        response.write(\'</a> |\\n\\t    <a href="\',escape=False)\n        response.write(URL(r=request,f=\'user/profile\'))\n        response.write(\'">\',escape=False)\n        response.write(T(\'edit profile\'))\n        response.write(\'</a>\\n\\t    \',escape=False)\n        pass\n    response.write(\' ]\\n\\t    \',escape=False)\n    pass\nresponse.write(\'\\n          </td>\\n        </tr>\\n        <tr>\\n          <td class="width10em column1">\\n            \',escape=False)\nif response.menu:\n    response.write(\'\\n            <h2>\',escape=False)\n    response.write(T(\'Menu\'))\n    response.write(\'</h2>\\n            \',escape=False)\n    response.write(MENU(response.menu))\n    response.write(\'\\n            \',escape=False)\n    pass\nresponse.write(\'\\n            \',escape=False)\nif response.menu_edit:\n    response.write(\'\\n            <h2>\',escape=False)\n    response.write(T(\'Edit This App\'))\n    response.write(\'</h2>\\n            \',escape=False)\n    response.write(MENU(response.menu_edit))\n    response.write(\'\\n            \',escape=False)\n    pass\nresponse.write(\'\\n            \\n            <br />\\n          </td>\\n          <td class="expandable column2">\\n            <div class="flash">\',escape=False)\nresponse.write(response.flash or \'\')\nresponse.write(\'</div>\\n            \\n<h1>Databases</h1>\\n<table border=1>\\n   <tr>\\n      <th>\',escape=False)\nresponse.write(A(\'NAME\', _href=URL(r=request, args="name")))\nresponse.write(\'</th>\\n      <th>\',escape=False)\nresponse.write(A(\'USER\', _href=URL(r=request, args="user")))\nresponse.write(\'</th>\\n      <th>\',escape=False)\nresponse.write(A(\'PORT\', _href=URL(r=request, args="port")))\nresponse.write(\'</th>\\n      <th>\',escape=False)\nresponse.write(A(\'STATUS\', _href=URL(r=request, args="status")))\nresponse.write(\'</th>\\n      <th>\',escape=False)\nresponse.write(A(\'SAN DISK\', _href=URL(r=request, args="san")))\nresponse.write(\'</th>\\n      <th>\',escape=False)\nresponse.write(A(\'SERVER\', _href=URL(r=request, args="server")))\nresponse.write(\'</th>\\n   </tr>\\n   \',escape=False)\nif false:\n    response.write(\'\\n   <tr class="grey">\\n      <td>\\n         <form>\\n         <select name="name" onChange="ajax(\\\'load_port\\\', [\\\'port\\\'], \\\'target\\\')">\\n            \',escape=False)\n    for n in names:\n        response.write(\'\\n            <option value="\',escape=False)\n        response.write(n)\n        response.write(\'">\',escape=False)\n        response.write(n)\n        response.write(\'</option>\\n            \',escape=False)\n        pass\n    response.write(\'\\n         </select>\\n         </form>\\n      </td>\\n      <td>\\n         <select name="user" onChange="ajax(\\\'load_port\\\', [\\\'port\\\'], \\\'target\\\')">\\n            \',escape=False)\n    for u in users:\n        response.write(\'\\n            <option value="\',escape=False)\n        response.write(u)\n        response.write(\'">\',escape=False)\n        response.write(u)\n        response.write(\'</option>\\n            \',escape=False)\n        pass\n    response.write(\'\\n         </select>\\n      </td>\\n      <td>\\n      <select name="port" onChange="ajax(\\\'load_port\\\', [\\\'port\\\'], \\\'target\\\')">\\n            \',escape=False)\n    for p in ports:\n        response.write(\'\\n            <option value="\',escape=False)\n        response.write(p)\n        response.write(\'">\',escape=False)\n        response.write(p)\n        response.write(\'</option>\\n            \',escape=False)\n        pass\n    response.write(\'\\n         </select>\\n      </td>\\n      <td>\\n         <select name="status" onChange="ajax(\\\'load_port\\\', [\\\'port\\\'], \\\'target\\\')">\\n            \',escape=False)\n    for s in statuses:\n        response.write(\'\\n            <option value="\',escape=False)\n        response.write(s)\n        response.write(\'">\',escape=False)\n        response.write(s)\n        response.write(\'</option>\\n            \',escape=False)\n        pass\n    response.write(\'\\n         </select>\\n      </td>\\n      <td>\\n         <select name="san" onChange="ajax(\\\'load_port\\\', [\\\'port\\\'], \\\'target\\\')">\\n            \',escape=False)\n    for s in sans:\n        response.write(\'\\n            <option value="\',escape=False)\n        response.write(s)\n        response.write(\'">\',escape=False)\n        response.write(s)\n        response.write(\'</option>\\n            \',escape=False)\n        pass\n    response.write(\'\\n         </select>\\n      </td>\\n      <td>\\n         <select name="server" onChange="ajax(\\\'load_port\\\', [\\\'port\\\'], \\\'target\\\')">\\n            \',escape=False)\n    for s in servers:\n        response.write(\'\\n            <option value="\',escape=False)\n        response.write(s)\n        response.write(\'">\',escape=False)\n        response.write(s)\n        response.write(\'</option>\\n            \',escape=False)\n        pass\n    response.write(\'\\n         </select>\\n      </td>\\n   </tr>\\n   \',escape=False)\n    pass\nresponse.write(\'\\n   \',escape=False)\nx = 0\nresponse.write(\'\\n   \',escape=False)\nfor db in dbs:\n    response.write(\'\\n   \',escape=False)\n    if x % 2 == 0:\n        response.write(\'\\n   <tr>\\n   \',escape=False)\n    else:\n        response.write(\'\\n   <tr class="grey">\\n   \',escape=False)\n        pass\n    response.write(\'\\n   \',escape=False)\n    x = x + 1\n    response.write(\'\\n      <td>\',escape=False)\n    response.write(db.dbs.name)\n    response.write(\'</td>\\n      <td>\',escape=False)\n    response.write(db.dbs.user)\n    response.write(\'</td>\\n      <td>\',escape=False)\n    response.write(db.dbs.port)\n    response.write(\'</td>\\n      <td>\',escape=False)\n    response.write(db.dbs.status)\n    response.write(\'</td>\\n      <td>\',escape=False)\n    response.write(db.dbs.san_disk)\n    response.write(\'</td>\\n      <td>\',escape=False)\n    response.write(db.servers.name)\n    response.write(\'</td>\\n   </tr>\\n   \',escape=False)\n    pass\nresponse.write(\'\\n</table>\\n\\n          </td>\\n          <!--\\n               <td class="width10em column3">\\n                 <h2>Right Column</h2>\\n               </td>\\n          //-->\\n        </tr>\\n        <tr>\\n          <td colspan="10" class="footer">\\n            <p>\\n            \',escape=False)\nresponse.write(T(\'Copyright\'))\nresponse.write(\' &copy; 2009 -\\n            \',escape=False)\nresponse.write(T(\'Powered by\'))\nresponse.write(\' <a href="http://www.web2py.com">web2py</a>\\n            </p>\\n          </td>\\n        </tr>\\n      </table>\\n    </div>\\n  </body>\\n</html>\\n\',escape=False)'
p6
sS'traceback'
p7
S'Traceback (most recent call last):\n  File "/opt/web2py/gluon/restricted.py", line 173, in restricted\n    exec ccode in environment\n  File "/opt/web2py/applications/cmdb/views/dbs/index.html", line 110, in <module>\nNameError: name \'false\' is not defined\n'
p8
s.