(dp1
S'output'
p2
S''
sS'layer'
p3
S'Framework'
p4
sS'code'
p5
S''
sS'traceback'
p6
S'Traceback (most recent call last):\n  File "/opt/web2py/gluon/main.py", line 478, in wsgibase\n    serve_controller(request, response, session)\n  File "/opt/web2py/gluon/main.py", line 193, in serve_controller\n    page = run_controller_in(request.controller, request.function, environment)\n  File "/opt/web2py/gluon/compileapp.py", line 426, in run_controller_in\n    restricted(code, environment, filename)\n  File "/opt/web2py/gluon/restricted.py", line 173, in restricted\n    exec ccode in environment\n  File "/opt/web2py/applications/admin/controllers/shell.py", line 64, in <module>\n  File "/opt/web2py/gluon/globals.py", line 96, in <lambda>\n    self._caller = lambda f: f()\n  File "/opt/web2py/applications/admin/controllers/shell.py", line 8, in index\n    reset()\n  File "/opt/web2py/applications/admin/controllers/shell.py", line 61, in reset\n    cache.ram(\'shell/\'+app,lambda a=app,r=response:__shell(a,r),0)\n  File "/opt/web2py/gluon/cache.py", line 182, in __call__\n    value = f()\n  File "/opt/web2py/applications/admin/controllers/shell.py", line 61, in <lambda>\n    cache.ram(\'shell/\'+app,lambda a=app,r=response:__shell(a,r),0)\n  File "/opt/web2py/applications/admin/controllers/shell.py", line 15, in __shell\n    shell.locals = env(app,True)\n  File "/opt/web2py/gluon/shell.py", line 113, in env\n    sys.exit(1)\nSystemExit: 1\n'
p7
s.